target datalayout = "e-m:e-p270:32:32-p271:32:32-p272:64:64-i64:64-i128:128-f80:128-n8:16:32:64-S128"
target triple = "x86_64-pc-linux-gnu"

%"class.icu_77::UObject" = type { ptr }
%"class.icu_77::UnicodeString" = type { %"class.icu_77::Replaceable", %"union.icu_77::UnicodeString::StackBufferOrFields" }
%"class.icu_77::Replaceable" = type { %"class.icu_77::UObject" }
%"union.icu_77::UnicodeString::StackBufferOrFields" = type { %struct.anon.0, [32 x i8] }
%struct.anon.0 = type { i16, i32, i32, ptr }
%struct.anon = type { i16, [27 x i16] }
%"class.icu_77::Char16Ptr" = type { ptr }

@_ZTVN6icu_777UObjectE = available_externally unnamed_addr constant { [5 x ptr] } { [5 x ptr] [ptr null, ptr @_ZTIN6icu_777UObjectE, ptr @_ZN6icu_777UObjectD1Ev, ptr @_ZN6icu_777UObjectD0Ev, ptr @_ZNK6icu_777UObject17getDynamicClassIDEv] }, align 8

; Function Attrs: inlinehint mustprogress nounwind uwtable
define linkonce_odr void @_ZN6icu_777UObjectC2Ev(ptr noundef nonnull align 8 dereferenceable(8) %0) unnamed_addr #2 comdat align 2 {
  %2 = alloca ptr, align 8
  store ptr %0, ptr %2, align 8, !tbaa !108
  %3 = load ptr, ptr %2, align 8
  store ptr getelementptr inbounds inrange(-16, 24) ({ [5 x ptr] }, ptr @_ZTVN6icu_777UObjectE, i32 0, i32 0, i32 2), ptr %3, align 8, !tbaa !25
  ret void
}

; Function Attrs: inlinehint mustprogress nounwind uwtable
define linkonce_odr void @_ZN6icu_7711ReplaceableC2Ev(ptr noundef nonnull align 8 dereferenceable(8) %0) unnamed_addr #2 comdat align 2 {
  %2 = alloca ptr, align 8
  store ptr %0, ptr %2, align 8, !tbaa !240
  %3 = load ptr, ptr %2, align 8
  call void @_ZN6icu_777UObjectC2Ev(ptr noundef nonnull align 8 dereferenceable(8) %3) #12
  store ptr getelementptr inbounds inrange(-16, 88) ({ [13 x ptr] }, ptr @_ZTVN6icu_7711ReplaceableE, i32 0, i32 0, i32 2), ptr %3, align 8, !tbaa !25
  ret void
}

; Function Attrs: inlinehint mustprogress nounwind uwtable
define linkonce_odr void @_ZN6icu_779Char16PtrD2Ev(ptr noundef nonnull align 8 dereferenceable(8) %0) unnamed_addr #2 comdat align 2 {
  %2 = alloca ptr, align 8
  store ptr %0, ptr %2, align 8, !tbaa !197
  %3 = load ptr, ptr %2, align 8
  %4 = getelementptr inbounds nuw %"class.icu_77::Char16Ptr", ptr %3, i32 0, i32 0
  %5 = load ptr, ptr %4, align 8, !tbaa !199
  call void asm sideeffect "", "rm,~{memory},~{dirflag},~{fpsr},~{flags}"(ptr %5) #12, !srcloc !201
  ret void
}

; Function Attrs: inlinehint mustprogress nounwind uwtable
define linkonce_odr void @_ZN6icu_779Char16PtrC2EPDs(ptr noundef nonnull align 8 dereferenceable(8) %0, ptr noundef %1) unnamed_addr #2 comdat align 2 {
  %3 = alloca ptr, align 8
  %4 = alloca ptr, align 8
  store ptr %0, ptr %3, align 8, !tbaa !197
  store ptr %1, ptr %4, align 8, !tbaa !195
  %5 = load ptr, ptr %3, align 8
  %6 = getelementptr inbounds nuw %"class.icu_77::Char16Ptr", ptr %5, i32 0, i32 0
  %7 = load ptr, ptr %4, align 8, !tbaa !195
  store ptr %7, ptr %6, align 8, !tbaa !199
  ret void
}

; Function Attrs: mustprogress uwtable
define noundef nonnull align 8 dereferenceable(64) ptr @_ZNK6icu_7725RelativeDateTimeFormatter6formatEd21URelativeDateTimeUnitRNS_13UnicodeStringER10UErrorCode(ptr noundef nonnull align 8 dereferenceable(272) %0, double noundef %1, i32 noundef %2, ptr noundef nonnull align 8 dereferenceable(64) %3, ptr noundef nonnull align 4 dereferenceable(4) %4) #1 align 2 {
  %6 = alloca ptr, align 8
  %7 = alloca double, align 8
  %8 = alloca i32, align 4
  %9 = alloca ptr, align 8
  %10 = alloca ptr, align 8
  %11 = alloca { i64, i64 }, align 8
  store ptr %0, ptr %6, align 8, !tbaa !94
  store double %1, ptr %7, align 8, !tbaa !130
  store i32 %2, ptr %8, align 4, !tbaa !52
  store ptr %3, ptr %9, align 8, !tbaa !47
  store ptr %4, ptr %10, align 8, !tbaa !22
  %12 = load ptr, ptr %6, align 8
  %13 = load ptr, ptr %9, align 8, !tbaa !47
  %14 = load ptr, ptr %10, align 8, !tbaa !22
  %15 = load double, ptr %7, align 8, !tbaa !130
  %16 = load i32, ptr %8, align 4, !tbaa !52
  store { i64, i64 } { i64 ptrtoint (ptr @_ZNK6icu_7725RelativeDateTimeFormatter18formatRelativeImplEd21URelativeDateTimeUnitRNS_29FormattedRelativeDateTimeDataER10UErrorCode to i64), i64 0 }, ptr %11, align 8, !tbaa !49
  %17 = getelementptr inbounds nuw { i64, i64 }, ptr %11, i32 0, i32 0
  %18 = load i64, ptr %17, align 8
  %19 = getelementptr inbounds nuw { i64, i64 }, ptr %11, i32 0, i32 1
  %20 = load i64, ptr %19, align 8
  %21 = call noundef nonnull align 8 dereferenceable(64) ptr @_ZNK6icu_7725RelativeDateTimeFormatter8doFormatIMS0_KFvd21URelativeDateTimeUnitRNS_29FormattedRelativeDateTimeDataER10UErrorCodeEJdS2_EEERNS_13UnicodeStringET_SA_S6_DpT0_(ptr noundef nonnull align 8 dereferenceable(272) %12, i64 %18, i64 %20, ptr noundef nonnull align 8 dereferenceable(64) %13, ptr noundef nonnull align 4 dereferenceable(4) %14, double noundef %15, i32 noundef %16)
  ret ptr %21
}

; Function Attrs: inlinehint mustprogress uwtable
define linkonce_odr void @_ZN6icu_7713UnicodeStringC2Ev(ptr noundef nonnull align 8 dereferenceable(64) %0) unnamed_addr #3 comdat align 2 {
  %2 = alloca ptr, align 8
  store ptr %0, ptr %2, align 8, !tbaa !47
  %3 = load ptr, ptr %2, align 8
  call void @_ZN6icu_7711ReplaceableC2Ev(ptr noundef nonnull align 8 dereferenceable(8) %3)
  store ptr getelementptr inbounds inrange(-16, 88) ({ [13 x ptr] }, ptr @_ZTVN6icu_7713UnicodeStringE, i32 0, i32 0, i32 2), ptr %3, align 8, !tbaa !25
  %4 = getelementptr inbounds nuw %"class.icu_77::UnicodeString", ptr %3, i32 0, i32 1
  %5 = getelementptr inbounds nuw %struct.anon, ptr %4, i32 0, i32 0
  store i16 2, ptr %5, align 8, !tbaa !49
  ret void
}

; Function Attrs: inlinehint mustprogress nounwind uwtable
define internal noundef signext i8 @_ZL9U_FAILURE10UErrorCode(i32 noundef %0) #2 {
  %2 = alloca i32, align 4
  store i32 %0, ptr %2, align 4, !tbaa !15
  %3 = load i32, ptr %2, align 4, !tbaa !15
  %4 = icmp sgt i32 %3, 0
  %5 = zext i1 %4 to i8
  ret i8 %5
}

; Function Attrs: mustprogress uwtable
define i32 @ureldatefmt_format_77(ptr noundef %0, double noundef %1, i32 noundef %2, ptr noundef %3, i32 noundef %4, ptr noundef %5) #1 personality ptr @__gxx_personality_v0 {
  %7 = alloca i32, align 4
  %8 = alloca ptr, align 8
  %9 = alloca double, align 8
  %10 = alloca i32, align 4
  %11 = alloca ptr, align 8
  %12 = alloca i32, align 4
  %13 = alloca ptr, align 8
  %14 = alloca %"class.icu_77::UnicodeString", align 8
  %15 = alloca ptr, align 8
  %16 = alloca i32, align 4
  %17 = alloca i32, align 4
  %18 = alloca %"class.icu_77::Char16Ptr", align 8
  store ptr %0, ptr %8, align 8, !tbaa !193
  store double %1, ptr %9, align 8, !tbaa !130
  store i32 %2, ptr %10, align 4, !tbaa !52
  store ptr %3, ptr %11, align 8, !tbaa !195
  store i32 %4, ptr %12, align 4, !tbaa !14
  store ptr %5, ptr %13, align 8, !tbaa !22
  %19 = load ptr, ptr %13, align 8, !tbaa !22
  %20 = load i32, ptr %19, align 4, !tbaa !15
  %21 = call noundef signext i8 @_ZL9U_FAILURE10UErrorCode(i32 noundef %20)
  %22 = icmp ne i8 %21, 0
  br i1 %22, label %23, label %24

23:                                               ; preds = %6
  store i32 0, ptr %7, align 4
  br label %73

24:                                               ; preds = %6
  %25 = load ptr, ptr %11, align 8, !tbaa !195
  %26 = icmp eq ptr %25, null
  br i1 %26, label %27, label %30

27:                                               ; preds = %24
  %28 = load i32, ptr %12, align 4, !tbaa !14
  %29 = icmp ne i32 %28, 0
  br i1 %29, label %33, label %35

30:                                               ; preds = %24
  %31 = load i32, ptr %12, align 4, !tbaa !14
  %32 = icmp slt i32 %31, 0
  br i1 %32, label %33, label %35

33:                                               ; preds = %30, %27
  %34 = load ptr, ptr %13, align 8, !tbaa !22
  store i32 1, ptr %34, align 4, !tbaa !15
  store i32 0, ptr %7, align 4
  br label %73

35:                                               ; preds = %30, %27
  call void @llvm.lifetime.start.p0(i64 64, ptr %14) #12
  call void @_ZN6icu_7713UnicodeStringC2Ev(ptr noundef nonnull align 8 dereferenceable(64) %14)
  %36 = load ptr, ptr %11, align 8, !tbaa !195
  %37 = icmp ne ptr %36, null
  br i1 %37, label %38, label %47

38:                                               ; preds = %35
  %39 = load ptr, ptr %11, align 8, !tbaa !195
  %40 = load i32, ptr %12, align 4, !tbaa !14
  %41 = invoke noundef nonnull align 8 dereferenceable(64) ptr @_ZN6icu_7713UnicodeString5setToEPDsii(ptr noundef nonnull align 8 dereferenceable(64) %14, ptr noundef %39, i32 noundef 0, i32 noundef %40)
          to label %42 unwind label %43

42:                                               ; preds = %38
  br label %47

43:                                               ; preds = %60, %53, %47, %38
  %44 = landingpad { ptr, i32 }
          cleanup
  %45 = extractvalue { ptr, i32 } %44, 0
  store ptr %45, ptr %15, align 8
  %46 = extractvalue { ptr, i32 } %44, 1
  store i32 %46, ptr %16, align 4
  br label %72

47:                                               ; preds = %42, %35
  %48 = load ptr, ptr %8, align 8, !tbaa !193
  %49 = load double, ptr %9, align 8, !tbaa !130
  %50 = load i32, ptr %10, align 4, !tbaa !52
  %51 = load ptr, ptr %13, align 8, !tbaa !22
  %52 = invoke noundef nonnull align 8 dereferenceable(64) ptr @_ZNK6icu_7725RelativeDateTimeFormatter6formatEd21URelativeDateTimeUnitRNS_13UnicodeStringER10UErrorCode(ptr noundef nonnull align 8 dereferenceable(272) %48, double noundef %49, i32 noundef %50, ptr noundef nonnull align 8 dereferenceable(64) %14, ptr noundef nonnull align 4 dereferenceable(4) %51)
          to label %53 unwind label %43

53:                                               ; preds = %47
  %54 = load ptr, ptr %13, align 8, !tbaa !22
  %55 = load i32, ptr %54, align 4, !tbaa !15
  %56 = invoke noundef signext i8 @_ZL9U_FAILURE10UErrorCode(i32 noundef %55)
          to label %57 unwind label %43

57:                                               ; preds = %53
  %58 = icmp ne i8 %56, 0
  br i1 %58, label %59, label %60

59:                                               ; preds = %57
  store i32 0, ptr %7, align 4
  store i32 1, ptr %17, align 4
  br label %71

60:                                               ; preds = %57
  %61 = load ptr, ptr %11, align 8, !tbaa !195
  invoke void @_ZN6icu_779Char16PtrC2EPDs(ptr noundef nonnull align 8 dereferenceable(8) %18, ptr noundef %61)
          to label %62 unwind label %43

62:                                               ; preds = %60
  %63 = load i32, ptr %12, align 4, !tbaa !14
  %64 = load ptr, ptr %13, align 8, !tbaa !22
  %65 = invoke noundef i32 @_ZNK6icu_7713UnicodeString7extractENS_9Char16PtrEiR10UErrorCode(ptr noundef nonnull align 8 dereferenceable(64) %14, ptr noundef %18, i32 noundef %63, ptr noundef nonnull align 4 dereferenceable(4) %64)
          to label %66 unwind label %67

66:                                               ; preds = %62
  store i32 %65, ptr %7, align 4
  call void @_ZN6icu_779Char16PtrD2Ev(ptr noundef nonnull align 8 dereferenceable(8) %18) #12
  store i32 1, ptr %17, align 4
  br label %71

67:                                               ; preds = %62
  %68 = landingpad { ptr, i32 }
          cleanup
  %69 = extractvalue { ptr, i32 } %68, 0
  store ptr %69, ptr %15, align 8
  %70 = extractvalue { ptr, i32 } %68, 1
  store i32 %70, ptr %16, align 4
  call void @_ZN6icu_779Char16PtrD2Ev(ptr noundef nonnull align 8 dereferenceable(8) %18) #12
  br label %72

71:                                               ; preds = %66, %59
  call void @_ZN6icu_7713UnicodeStringD1Ev(ptr noundef nonnull align 8 dereferenceable(64) %14) #12
  call void @llvm.lifetime.end.p0(i64 64, ptr %14) #12
  br label %73

72:                                               ; preds = %67, %43
  call void @_ZN6icu_7713UnicodeStringD1Ev(ptr noundef nonnull align 8 dereferenceable(64) %14) #12
  call void @llvm.lifetime.end.p0(i64 64, ptr %14) #12
  br label %75

73:                                               ; preds = %71, %33, %23
  %74 = load i32, ptr %7, align 4
  ret i32 %74

75:                                               ; preds = %72
  %76 = load ptr, ptr %15, align 8
  %77 = load i32, ptr %16, align 4
  %78 = insertvalue { ptr, i32 } poison, ptr %76, 0
  %79 = insertvalue { ptr, i32 } %78, i32 %77, 1
  resume { ptr, i32 } %79
}